target datalayout = "e-m:e-p270:32:32-p271:32:32-p272:64:64-i64:64-i128:128-f80:128-n8:16:32:64-S128"
target triple = "x86_64-pc-linux-gnu"

%struct.st_hash_type = type { ptr, ptr }
%struct.OnigEncodingTypeST = type { ptr, ptr, i32, i32, ptr, ptr, ptr, ptr, ptr, ptr, ptr, ptr, ptr, ptr, ptr, ptr, ptr, ptr, ptr, i32, i32, i32 }
%struct.st_callout_name_key = type { ptr, i32, ptr, ptr }
%struct.CalloutNameEntry = type { ptr, i32, i32 }

@onig_st_init_callout_name_table_with_size.hashType = internal global %struct.st_hash_type { ptr @callout_name_table_cmp, ptr @callout_name_table_hash }, align 8
@GlobalCalloutNameTable = internal global ptr null, align 8
@CalloutNameIDCounter = internal global i32 0, align 4
@OnigEncodingASCII = external global %struct.OnigEncodingTypeST, align 8

; Function Attrs: nounwind uwtable
define dso_local i32 @onig_st_lookup_callout_name_table(ptr noundef %0, ptr noundef %1, i32 noundef %2, ptr noundef %3, ptr noundef %4, ptr noundef %5) #0 {
  %7 = alloca ptr, align 8
  %8 = alloca ptr, align 8
  %9 = alloca i32, align 4
  %10 = alloca ptr, align 8
  %11 = alloca ptr, align 8
  %12 = alloca ptr, align 8
  %13 = alloca %struct.st_callout_name_key, align 8
  store ptr %0, ptr %7, align 8, !tbaa !9
  store ptr %1, ptr %8, align 8, !tbaa !32
  store i32 %2, ptr %9, align 4, !tbaa !10
  store ptr %3, ptr %10, align 8, !tbaa !4
  store ptr %4, ptr %11, align 8, !tbaa !4
  store ptr %5, ptr %12, align 8, !tbaa !22
  call void @llvm.lifetime.start.p0(i64 32, ptr %13) #8
  %14 = load ptr, ptr %8, align 8, !tbaa !32
  %15 = getelementptr inbounds nuw %struct.st_callout_name_key, ptr %13, i32 0, i32 0
  store ptr %14, ptr %15, align 8, !tbaa !24
  %16 = load i32, ptr %9, align 4, !tbaa !10
  %17 = getelementptr inbounds nuw %struct.st_callout_name_key, ptr %13, i32 0, i32 1
  store i32 %16, ptr %17, align 8, !tbaa !27
  %18 = load ptr, ptr %10, align 8, !tbaa !4
  %19 = getelementptr inbounds nuw %struct.st_callout_name_key, ptr %13, i32 0, i32 2
  store ptr %18, ptr %19, align 8, !tbaa !29
  %20 = load ptr, ptr %11, align 8, !tbaa !4
  %21 = getelementptr inbounds nuw %struct.st_callout_name_key, ptr %13, i32 0, i32 3
  store ptr %20, ptr %21, align 8, !tbaa !28
  %22 = load ptr, ptr %7, align 8, !tbaa !9
  %23 = ptrtoint ptr %13 to i64
  %24 = load ptr, ptr %12, align 8, !tbaa !22
  %25 = call i32 @onig_st_lookup(ptr noundef %22, i64 noundef %23, ptr noundef %24)
  call void @llvm.lifetime.end.p0(i64 32, ptr %13) #8
  ret i32 %25
}

; Function Attrs: nounwind uwtable
define internal i32 @st_insert_callout_name_table(ptr noundef %0, ptr noundef %1, i32 noundef %2, ptr noundef %3, ptr noundef %4, i64 noundef %5) #0 {
  %7 = alloca i32, align 4
  %8 = alloca ptr, align 8
  %9 = alloca ptr, align 8
  %10 = alloca i32, align 4
  %11 = alloca ptr, align 8
  %12 = alloca ptr, align 8
  %13 = alloca i64, align 8
  %14 = alloca ptr, align 8
  %15 = alloca i32, align 4
  %16 = alloca i32, align 4
  store ptr %0, ptr %8, align 8, !tbaa !9
  store ptr %1, ptr %9, align 8, !tbaa !32
  store i32 %2, ptr %10, align 4, !tbaa !10
  store ptr %3, ptr %11, align 8, !tbaa !4
  store ptr %4, ptr %12, align 8, !tbaa !4
  store i64 %5, ptr %13, align 8, !tbaa !15
  call void @llvm.lifetime.start.p0(i64 8, ptr %14) #8
  call void @llvm.lifetime.start.p0(i64 4, ptr %15) #8
  %17 = call noalias ptr @malloc(i64 noundef 32) #9
  store ptr %17, ptr %14, align 8, !tbaa !9
  %18 = load ptr, ptr %14, align 8, !tbaa !9
  %19 = icmp eq ptr %18, null
  br i1 %19, label %20, label %21

20:                                               ; preds = %6
  store i32 -5, ptr %7, align 4
  store i32 1, ptr %16, align 4
  br label %45

21:                                               ; preds = %6
  %22 = load ptr, ptr %9, align 8, !tbaa !32
  %23 = load ptr, ptr %14, align 8, !tbaa !9
  %24 = getelementptr inbounds nuw %struct.st_callout_name_key, ptr %23, i32 0, i32 0
  store ptr %22, ptr %24, align 8, !tbaa !24
  %25 = load i32, ptr %10, align 4, !tbaa !10
  %26 = load ptr, ptr %14, align 8, !tbaa !9
  %27 = getelementptr inbounds nuw %struct.st_callout_name_key, ptr %26, i32 0, i32 1
  store i32 %25, ptr %27, align 8, !tbaa !27
  %28 = load ptr, ptr %11, align 8, !tbaa !4
  %29 = load ptr, ptr %14, align 8, !tbaa !9
  %30 = getelementptr inbounds nuw %struct.st_callout_name_key, ptr %29, i32 0, i32 2
  store ptr %28, ptr %30, align 8, !tbaa !29
  %31 = load ptr, ptr %12, align 8, !tbaa !4
  %32 = load ptr, ptr %14, align 8, !tbaa !9
  %33 = getelementptr inbounds nuw %struct.st_callout_name_key, ptr %32, i32 0, i32 3
  store ptr %31, ptr %33, align 8, !tbaa !28
  %34 = load ptr, ptr %8, align 8, !tbaa !9
  %35 = load ptr, ptr %14, align 8, !tbaa !9
  %36 = ptrtoint ptr %35 to i64
  %37 = load i64, ptr %13, align 8, !tbaa !15
  %38 = call i32 @onig_st_insert(ptr noundef %34, i64 noundef %36, i64 noundef %37)
  store i32 %38, ptr %15, align 4, !tbaa !10
  %39 = load i32, ptr %15, align 4, !tbaa !10
  %40 = icmp ne i32 %39, 0
  br i1 %40, label %41, label %43

41:                                               ; preds = %21
  %42 = load ptr, ptr %14, align 8, !tbaa !9
  call void @free(ptr noundef %42) #8
  br label %43

43:                                               ; preds = %41, %21
  %44 = load i32, ptr %15, align 4, !tbaa !10
  store i32 %44, ptr %7, align 4
  store i32 1, ptr %16, align 4
  br label %45

45:                                               ; preds = %43, %20
  call void @llvm.lifetime.end.p0(i64 4, ptr %15) #8
  call void @llvm.lifetime.end.p0(i64 8, ptr %14) #8
  %46 = load i32, ptr %7, align 4
  ret i32 %46
}

; Function Attrs: nounwind uwtable
define dso_local ptr @onig_st_init_callout_name_table_with_size(i32 noundef %0) #0 {
  %2 = alloca i32, align 4
  store i32 %0, ptr %2, align 4, !tbaa !10
  %3 = load i32, ptr %2, align 4, !tbaa !10
  %4 = call ptr @onig_st_init_table_with_size(ptr noundef @onig_st_init_callout_name_table_with_size.hashType, i32 noundef %3)
  ret ptr %4
}

; Function Attrs: nounwind uwtable
define internal ptr @callout_name_find(ptr noundef %0, i32 noundef %1, ptr noundef %2, ptr noundef %3) #0 {
  %5 = alloca ptr, align 8
  %6 = alloca i32, align 4
  %7 = alloca ptr, align 8
  %8 = alloca ptr, align 8
  %9 = alloca i32, align 4
  %10 = alloca ptr, align 8
  %11 = alloca ptr, align 8
  store ptr %0, ptr %5, align 8, !tbaa !32
  store i32 %1, ptr %6, align 4, !tbaa !10
  store ptr %2, ptr %7, align 8, !tbaa !4
  store ptr %3, ptr %8, align 8, !tbaa !4
  call void @llvm.lifetime.start.p0(i64 4, ptr %9) #8
  call void @llvm.lifetime.start.p0(i64 8, ptr %10) #8
  call void @llvm.lifetime.start.p0(i64 8, ptr %11) #8
  %12 = load ptr, ptr @GlobalCalloutNameTable, align 8, !tbaa !37
  store ptr %12, ptr %11, align 8, !tbaa !37
  store ptr null, ptr %10, align 8, !tbaa !9
  %13 = load ptr, ptr %11, align 8, !tbaa !37
  %14 = icmp ne ptr %13, null
  br i1 %14, label %15, label %42

15:                                               ; preds = %4
  %16 = load ptr, ptr %11, align 8, !tbaa !37
  %17 = load ptr, ptr %5, align 8, !tbaa !32
  %18 = load i32, ptr %6, align 4, !tbaa !10
  %19 = load ptr, ptr %7, align 8, !tbaa !4
  %20 = load ptr, ptr %8, align 8, !tbaa !4
  %21 = call i32 @onig_st_lookup_callout_name_table(ptr noundef %16, ptr noundef %17, i32 noundef %18, ptr noundef %19, ptr noundef %20, ptr noundef %10)
  store i32 %21, ptr %9, align 4, !tbaa !10
  %22 = load i32, ptr %9, align 4, !tbaa !10
  %23 = icmp eq i32 %22, 0
  br i1 %23, label %24, label %41

24:                                               ; preds = %15
  %25 = load ptr, ptr %5, align 8, !tbaa !32
  %26 = icmp ne ptr %25, @OnigEncodingASCII
  br i1 %26, label %27, label %40

27:                                               ; preds = %24
  %28 = load ptr, ptr %5, align 8, !tbaa !32
  %29 = getelementptr inbounds nuw %struct.OnigEncodingTypeST, ptr %28, i32 0, i32 19
  %30 = load i32, ptr %29, align 8, !tbaa !185
  %31 = and i32 %30, 1
  %32 = icmp ne i32 %31, 0
  br i1 %32, label %33, label %40

33:                                               ; preds = %27
  store ptr @OnigEncodingASCII, ptr %5, align 8, !tbaa !32
  %34 = load ptr, ptr %11, align 8, !tbaa !37
  %35 = load ptr, ptr %5, align 8, !tbaa !32
  %36 = load i32, ptr %6, align 4, !tbaa !10
  %37 = load ptr, ptr %7, align 8, !tbaa !4
  %38 = load ptr, ptr %8, align 8, !tbaa !4
  %39 = call i32 @onig_st_lookup_callout_name_table(ptr noundef %34, ptr noundef %35, i32 noundef %36, ptr noundef %37, ptr noundef %38, ptr noundef %10)
  br label %40

40:                                               ; preds = %33, %27, %24
  br label %41

41:                                               ; preds = %40, %15
  br label %42

42:                                               ; preds = %41, %4
  %43 = load ptr, ptr %10, align 8, !tbaa !9
  call void @llvm.lifetime.end.p0(i64 8, ptr %11) #8
  call void @llvm.lifetime.end.p0(i64 8, ptr %10) #8
  call void @llvm.lifetime.end.p0(i64 4, ptr %9) #8
  ret ptr %43
}

; Function Attrs: nounwind uwtable
define internal i32 @callout_name_entry(ptr noundef %0, ptr noundef %1, i32 noundef %2, ptr noundef %3, ptr noundef %4) #0 {
  %6 = alloca i32, align 4
  %7 = alloca ptr, align 8
  %8 = alloca ptr, align 8
  %9 = alloca i32, align 4
  %10 = alloca ptr, align 8
  %11 = alloca ptr, align 8
  %12 = alloca i32, align 4
  %13 = alloca ptr, align 8
  %14 = alloca ptr, align 8
  %15 = alloca i32, align 4
  store ptr %0, ptr %7, align 8, !tbaa !9
  store ptr %1, ptr %8, align 8, !tbaa !32
  store i32 %2, ptr %9, align 4, !tbaa !10
  store ptr %3, ptr %10, align 8, !tbaa !4
  store ptr %4, ptr %11, align 8, !tbaa !4
  call void @llvm.lifetime.start.p0(i64 4, ptr %12) #8
  call void @llvm.lifetime.start.p0(i64 8, ptr %13) #8
  call void @llvm.lifetime.start.p0(i64 8, ptr %14) #8
  %16 = load ptr, ptr @GlobalCalloutNameTable, align 8, !tbaa !37
  store ptr %16, ptr %14, align 8, !tbaa !37
  %17 = load ptr, ptr %7, align 8, !tbaa !9
  store ptr null, ptr %17, align 8, !tbaa !9
  %18 = load ptr, ptr %11, align 8, !tbaa !4
  %19 = load ptr, ptr %10, align 8, !tbaa !4
  %20 = ptrtoint ptr %18 to i64
  %21 = ptrtoint ptr %19 to i64
  %22 = sub i64 %20, %21
  %23 = icmp sle i64 %22, 0
  br i1 %23, label %24, label %25

24:                                               ; preds = %5
  store i32 -228, ptr %6, align 4
  store i32 1, ptr %15, align 4
  br label %104

25:                                               ; preds = %5
  %26 = load ptr, ptr %8, align 8, !tbaa !32
  %27 = load i32, ptr %9, align 4, !tbaa !10
  %28 = load ptr, ptr %10, align 8, !tbaa !4
  %29 = load ptr, ptr %11, align 8, !tbaa !4
  %30 = call ptr @callout_name_find(ptr noundef %26, i32 noundef %27, ptr noundef %28, ptr noundef %29)
  store ptr %30, ptr %13, align 8, !tbaa !9
  %31 = load ptr, ptr %13, align 8, !tbaa !9
  %32 = icmp eq ptr %31, null
  br i1 %32, label %33, label %98

33:                                               ; preds = %25
  %34 = load ptr, ptr %14, align 8, !tbaa !37
  %35 = icmp eq ptr %34, null
  br i1 %35, label %36, label %43

36:                                               ; preds = %33
  %37 = call ptr @onig_st_init_callout_name_table_with_size(i32 noundef 5)
  store ptr %37, ptr %14, align 8, !tbaa !37
  %38 = load ptr, ptr %14, align 8, !tbaa !37
  %39 = icmp eq ptr %38, null
  br i1 %39, label %40, label %41

40:                                               ; preds = %36
  store i32 -5, ptr %6, align 4
  store i32 1, ptr %15, align 4
  br label %104

41:                                               ; preds = %36
  %42 = load ptr, ptr %14, align 8, !tbaa !37
  store ptr %42, ptr @GlobalCalloutNameTable, align 8, !tbaa !37
  br label %43

43:                                               ; preds = %41, %33
  %44 = call noalias ptr @malloc(i64 noundef 16) #9
  store ptr %44, ptr %13, align 8, !tbaa !9
  %45 = load ptr, ptr %13, align 8, !tbaa !9
  %46 = icmp eq ptr %45, null
  br i1 %46, label %47, label %48

47:                                               ; preds = %43
  store i32 -5, ptr %6, align 4
  store i32 1, ptr %15, align 4
  br label %104

48:                                               ; preds = %43
  %49 = load ptr, ptr %8, align 8, !tbaa !32
  %50 = load ptr, ptr %10, align 8, !tbaa !4
  %51 = load ptr, ptr %11, align 8, !tbaa !4
  %52 = call ptr @onigenc_strdup(ptr noundef %49, ptr noundef %50, ptr noundef %51)
  %53 = load ptr, ptr %13, align 8, !tbaa !9
  %54 = getelementptr inbounds nuw %struct.CalloutNameEntry, ptr %53, i32 0, i32 0
  store ptr %52, ptr %54, align 8, !tbaa !86
  %55 = load ptr, ptr %13, align 8, !tbaa !9
  %56 = getelementptr inbounds nuw %struct.CalloutNameEntry, ptr %55, i32 0, i32 0
  %57 = load ptr, ptr %56, align 8, !tbaa !86
  %58 = icmp eq ptr %57, null
  br i1 %58, label %59, label %61

59:                                               ; preds = %48
  %60 = load ptr, ptr %13, align 8, !tbaa !9
  call void @free(ptr noundef %60) #8
  store i32 -5, ptr %6, align 4
  store i32 1, ptr %15, align 4
  br label %104

61:                                               ; preds = %48
  %62 = load ptr, ptr %14, align 8, !tbaa !37
  %63 = load ptr, ptr %8, align 8, !tbaa !32
  %64 = load i32, ptr %9, align 4, !tbaa !10
  %65 = load ptr, ptr %13, align 8, !tbaa !9
  %66 = getelementptr inbounds nuw %struct.CalloutNameEntry, ptr %65, i32 0, i32 0
  %67 = load ptr, ptr %66, align 8, !tbaa !86
  %68 = load ptr, ptr %13, align 8, !tbaa !9
  %69 = getelementptr inbounds nuw %struct.CalloutNameEntry, ptr %68, i32 0, i32 0
  %70 = load ptr, ptr %69, align 8, !tbaa !86
  %71 = load ptr, ptr %11, align 8, !tbaa !4
  %72 = load ptr, ptr %10, align 8, !tbaa !4
  %73 = ptrtoint ptr %71 to i64
  %74 = ptrtoint ptr %72 to i64
  %75 = sub i64 %73, %74
  %76 = getelementptr inbounds i8, ptr %70, i64 %75
  %77 = load ptr, ptr %13, align 8, !tbaa !9
  %78 = ptrtoint ptr %77 to i64
  %79 = call i32 @st_insert_callout_name_table(ptr noundef %62, ptr noundef %63, i32 noundef %64, ptr noundef %67, ptr noundef %76, i64 noundef %78)
  store i32 %79, ptr %12, align 4, !tbaa !10
  %80 = load i32, ptr %12, align 4, !tbaa !10
  %81 = icmp slt i32 %80, 0
  br i1 %81, label %82, label %84

82:                                               ; preds = %61
  %83 = load i32, ptr %12, align 4, !tbaa !10
  store i32 %83, ptr %6, align 4
  store i32 1, ptr %15, align 4
  br label %104

84:                                               ; preds = %61
  %85 = load i32, ptr @CalloutNameIDCounter, align 4, !tbaa !10
  %86 = add nsw i32 %85, 1
  store i32 %86, ptr @CalloutNameIDCounter, align 4, !tbaa !10
  %87 = load i32, ptr @CalloutNameIDCounter, align 4, !tbaa !10
  %88 = load ptr, ptr %13, align 8, !tbaa !9
  %89 = getelementptr inbounds nuw %struct.CalloutNameEntry, ptr %88, i32 0, i32 2
  store i32 %87, ptr %89, align 4, !tbaa !96
  %90 = load ptr, ptr %11, align 8, !tbaa !4
  %91 = load ptr, ptr %10, align 8, !tbaa !4
  %92 = ptrtoint ptr %90 to i64
  %93 = ptrtoint ptr %91 to i64
  %94 = sub i64 %92, %93
  %95 = trunc i64 %94 to i32
  %96 = load ptr, ptr %13, align 8, !tbaa !9
  %97 = getelementptr inbounds nuw %struct.CalloutNameEntry, ptr %96, i32 0, i32 1
  store i32 %95, ptr %97, align 8, !tbaa !97
  br label %98

98:                                               ; preds = %84, %25
  %99 = load ptr, ptr %13, align 8, !tbaa !9
  %100 = load ptr, ptr %7, align 8, !tbaa !9
  store ptr %99, ptr %100, align 8, !tbaa !9
  %101 = load ptr, ptr %13, align 8, !tbaa !9
  %102 = getelementptr inbounds nuw %struct.CalloutNameEntry, ptr %101, i32 0, i32 2
  %103 = load i32, ptr %102, align 4, !tbaa !96
  store i32 %103, ptr %6, align 4
  store i32 1, ptr %15, align 4
  br label %104

104:                                              ; preds = %98, %82, %59, %47, %40, %24
  call void @llvm.lifetime.end.p0(i64 8, ptr %14) #8
  call void @llvm.lifetime.end.p0(i64 8, ptr %13) #8
  call void @llvm.lifetime.end.p0(i64 4, ptr %12) #8
  %105 = load i32, ptr %6, align 4
  ret i32 %105
}