; Function Attrs: nounwind uwtable
define internal fastcc i32 @callout_name_entry(ptr noundef nonnull writeonly captures(none) initializes((0, 8)) %0, ptr noundef %1, ptr noundef %2, ptr noundef %3) unnamed_addr #2 {
  %5 = alloca %struct.st_callout_name_key, align 8
  %6 = alloca %struct.st_callout_name_key, align 8
  %7 = alloca ptr, align 8
  %8 = load ptr, ptr @GlobalCalloutNameTable, align 8, !tbaa !84
  store ptr null, ptr %0, align 8, !tbaa !4
  %9 = ptrtoint ptr %3 to i64
  %10 = ptrtoint ptr %2 to i64
  %11 = sub i64 %9, %10
  %12 = icmp slt i64 %11, 1
  br i1 %12, label %st_insert_callout_name_table.exit.thread, label %13

13:                                               ; preds = %4
  call void @llvm.lifetime.start.p0(i64 8, ptr nonnull %7) #24
  store ptr null, ptr %7, align 8, !tbaa !4
  %.not.i = icmp eq ptr %8, null
  br i1 %.not.i, label %33, label %14

14:                                               ; preds = %13
  call void @llvm.lifetime.start.p0(i64 32, ptr nonnull %6) #24
  store ptr %1, ptr %6, align 8, !tbaa !19
  %15 = getelementptr inbounds nuw i8, ptr %6, i64 8
  store i32 0, ptr %15, align 8, !tbaa !22
  %16 = getelementptr inbounds nuw i8, ptr %6, i64 16
  store ptr %2, ptr %16, align 8, !tbaa !24
  %17 = getelementptr inbounds nuw i8, ptr %6, i64 24
  store ptr %3, ptr %17, align 8, !tbaa !23
  %18 = ptrtoint ptr %6 to i64
  %19 = call i32 @onig_st_lookup(ptr noundef nonnull %8, i64 noundef %18, ptr noundef nonnull %7) #24
  call void @llvm.lifetime.end.p0(i64 32, ptr nonnull %6) #24
  %20 = icmp eq i32 %19, 0
  %21 = icmp ne ptr %1, @OnigEncodingASCII
  %or.cond.i = and i1 %21, %20
  br i1 %or.cond.i, label %22, label %callout_name_find.exit

22:                                               ; preds = %14
  %23 = getelementptr inbounds nuw i8, ptr %1, i64 144
  %24 = load i32, ptr %23, align 8, !tbaa !86
  %25 = and i32 %24, 1
  %.not15.i = icmp eq i32 %25, 0
  br i1 %.not15.i, label %callout_name_find.exit, label %26

26:                                               ; preds = %22
  call void @llvm.lifetime.start.p0(i64 32, ptr nonnull %5) #24
  store ptr @OnigEncodingASCII, ptr %5, align 8, !tbaa !19
  %27 = getelementptr inbounds nuw i8, ptr %5, i64 8
  store i32 0, ptr %27, align 8, !tbaa !22
  %28 = getelementptr inbounds nuw i8, ptr %5, i64 16
  store ptr %2, ptr %28, align 8, !tbaa !24
  %29 = getelementptr inbounds nuw i8, ptr %5, i64 24
  store ptr %3, ptr %29, align 8, !tbaa !23
  %30 = ptrtoint ptr %5 to i64
  %31 = call i32 @onig_st_lookup(ptr noundef nonnull %8, i64 noundef %30, ptr noundef nonnull %7) #24
  call void @llvm.lifetime.end.p0(i64 32, ptr nonnull %5) #24
  br label %callout_name_find.exit

callout_name_find.exit:                           ; preds = %14, %22, %26
  %.pr = load ptr, ptr %7, align 8, !tbaa !4
  call void @llvm.lifetime.end.p0(i64 8, ptr nonnull %7) #24
  %32 = icmp eq ptr %.pr, null
  br i1 %32, label %37, label %callout_name_find.exit._crit_edge

callout_name_find.exit._crit_edge:                ; preds = %callout_name_find.exit
  %.phi.trans.insert = getelementptr inbounds nuw i8, ptr %.pr, i64 12
  %.pre = load i32, ptr %.phi.trans.insert, align 4, !tbaa !87
  br label %61

33:                                               ; preds = %13
  call void @llvm.lifetime.end.p0(i64 8, ptr nonnull %7) #24
  %34 = tail call ptr @onig_st_init_table_with_size(ptr noundef nonnull @onig_st_init_callout_name_table_with_size.hashType, i32 noundef 5) #24
  %35 = icmp eq ptr %34, null
  br i1 %35, label %st_insert_callout_name_table.exit.thread, label %36

36:                                               ; preds = %33
  store ptr %34, ptr @GlobalCalloutNameTable, align 8, !tbaa !84
  br label %37

37:                                               ; preds = %callout_name_find.exit, %36
  %.0 = phi ptr [ %34, %36 ], [ %8, %callout_name_find.exit ]
  %38 = call noalias dereferenceable_or_null(16) ptr @malloc(i64 noundef 16) #25
  %39 = icmp eq ptr %38, null
  br i1 %39, label %st_insert_callout_name_table.exit.thread, label %40

40:                                               ; preds = %37
  %41 = call ptr @onigenc_strdup(ptr noundef %1, ptr noundef %2, ptr noundef %3) #24
  store ptr %41, ptr %38, align 8, !tbaa !74
  %42 = icmp eq ptr %41, null
  br i1 %42, label %43, label %44

43:                                               ; preds = %40
  call void @free(ptr noundef nonnull %38) #24
  br label %st_insert_callout_name_table.exit.thread

44:                                               ; preds = %40
  %45 = call noalias dereferenceable_or_null(32) ptr @malloc(i64 noundef 32) #25
  %46 = icmp eq ptr %45, null
  br i1 %46, label %st_insert_callout_name_table.exit.thread, label %47

47:                                               ; preds = %44
  %48 = ptrtoint ptr %38 to i64
  %49 = getelementptr inbounds nuw i8, ptr %41, i64 %11
  store ptr %1, ptr %45, align 8, !tbaa !19
  %50 = getelementptr inbounds nuw i8, ptr %45, i64 8
  store i32 0, ptr %50, align 8, !tbaa !22
  %51 = getelementptr inbounds nuw i8, ptr %45, i64 16
  store ptr %41, ptr %51, align 8, !tbaa !24
  %52 = getelementptr inbounds nuw i8, ptr %45, i64 24
  store ptr %49, ptr %52, align 8, !tbaa !23
  %53 = ptrtoint ptr %45 to i64
  %54 = call i32 @onig_st_insert(ptr noundef nonnull %.0, i64 noundef %53, i64 noundef %48) #24
  %.not.i44 = icmp eq i32 %54, 0
  br i1 %.not.i44, label %st_insert_callout_name_table.exit.thread46, label %st_insert_callout_name_table.exit

st_insert_callout_name_table.exit:                ; preds = %47
  call void @free(ptr noundef nonnull %45) #24
  %55 = icmp slt i32 %54, 0
  br i1 %55, label %st_insert_callout_name_table.exit.thread, label %st_insert_callout_name_table.exit.thread46

st_insert_callout_name_table.exit.thread46:       ; preds = %47, %st_insert_callout_name_table.exit
  %56 = load i32, ptr @CalloutNameIDCounter, align 4, !tbaa !8
  %57 = add nsw i32 %56, 1
  store i32 %57, ptr @CalloutNameIDCounter, align 4, !tbaa !8
  %58 = getelementptr inbounds nuw i8, ptr %38, i64 12
  store i32 %57, ptr %58, align 4, !tbaa !87
  %59 = trunc i64 %11 to i32
  %60 = getelementptr inbounds nuw i8, ptr %38, i64 8
  store i32 %59, ptr %60, align 8, !tbaa !88
  br label %61

61:                                               ; preds = %callout_name_find.exit._crit_edge, %st_insert_callout_name_table.exit.thread46
  %62 = phi i32 [ %57, %st_insert_callout_name_table.exit.thread46 ], [ %.pre, %callout_name_find.exit._crit_edge ]
  %.035 = phi ptr [ %38, %st_insert_callout_name_table.exit.thread46 ], [ %.pr, %callout_name_find.exit._crit_edge ]
  store ptr %.035, ptr %0, align 8, !tbaa !4
  br label %st_insert_callout_name_table.exit.thread

st_insert_callout_name_table.exit.thread:         ; preds = %44, %st_insert_callout_name_table.exit, %37, %33, %4, %61, %43
  %.036 = phi i32 [ -5, %43 ], [ %62, %61 ], [ -228, %4 ], [ -5, %33 ], [ -5, %37 ], [ %54, %st_insert_callout_name_table.exit ], [ -5, %44 ]
  ret i32 %.036
}